target datalayout = "e-m:e-p270:32:32-p271:32:32-p272:64:64-i64:64-i128:128-f80:128-n8:16:32:64-S128"
target triple = "x86_64-unknown-linux-gnu"

%class.btMatrix3x3 = type { [3 x %class.btVector3] }
%class.btVector3 = type { [4 x float] }
%class.btReducedDeformableStaticConstraint = type <{ %class.btDeformableStaticConstraint, ptr, float, %class.btVector3, %class.btVector3, %class.btVector3, %class.btMatrix3x3, float, float, float, float, [4 x i8] }>
%class.btDeformableStaticConstraint = type { %class.btDeformableContactConstraint, ptr }
%class.btDeformableContactConstraint = type { ptr, i8, ptr, %class.btVector3 }
%"struct.btSoftBody::Node" = type <{ %"struct.btSoftBody::Feature", %class.btVector3, %class.btVector3, %class.btVector3, %class.btVector3, %class.btVector3, %class.btVector3, float, float, ptr, i32, i8, [3 x i8], i32, %class.btVector3, %class.btMatrix3x3, %class.btMatrix3x3, [4 x i8] }>
%"struct.btSoftBody::Feature" = type { %"struct.btSoftBody::Element", ptr }
%"struct.btSoftBody::Element" = type { ptr }
%class.btCollisionObject = type <{ ptr, %class.btTransform, %class.btTransform, %class.btVector3, %class.btVector3, %class.btVector3, i32, float, ptr, ptr, ptr, ptr, i32, i32, i32, i32, i32, float, float, float, float, float, float, float, i32, [4 x i8], ptr, i32, i32, i32, float, float, float, i32, [4 x i8], %class.btAlignedObjectArray, i32, %class.btVector3, [4 x i8] }>
%class.btTransform = type { %class.btMatrix3x3, %class.btVector3 }
%class.btAlignedObjectArray = type <{ %class.btAlignedAllocator, [3 x i8], i32, i32, [4 x i8], ptr, i8, [7 x i8] }>
%class.btAlignedAllocator = type { i8 }

; Function Attrs: mustprogress nounwind uwtable
define linkonce_odr dso_local void @_ZN9btVector3C2ERKfS1_S1_(ptr noundef nonnull align 4 dereferenceable(16) %this, ptr noundef nonnull align 4 dereferenceable(4) %_x, ptr noundef nonnull align 4 dereferenceable(4) %_y, ptr noundef nonnull align 4 dereferenceable(4) %_z) unnamed_addr #1 comdat align 2 {
entry:
  %this.addr = alloca ptr, align 8
  %_x.addr = alloca ptr, align 8
  %_y.addr = alloca ptr, align 8
  %_z.addr = alloca ptr, align 8
  store ptr %this, ptr %this.addr, align 8
  store ptr %_x, ptr %_x.addr, align 8
  store ptr %_y, ptr %_y.addr, align 8
  store ptr %_z, ptr %_z.addr, align 8
  %this1 = load ptr, ptr %this.addr, align 8
  %0 = load ptr, ptr %_x.addr, align 8
  %1 = load float, ptr %0, align 4
  %m_floats = getelementptr inbounds %class.btVector3, ptr %this1, i32 0, i32 0
  %arrayidx = getelementptr inbounds [4 x float], ptr %m_floats, i64 0, i64 0
  store float %1, ptr %arrayidx, align 4
  %2 = load ptr, ptr %_y.addr, align 8
  %3 = load float, ptr %2, align 4
  %m_floats2 = getelementptr inbounds %class.btVector3, ptr %this1, i32 0, i32 0
  %arrayidx3 = getelementptr inbounds [4 x float], ptr %m_floats2, i64 0, i64 1
  store float %3, ptr %arrayidx3, align 4
  %4 = load ptr, ptr %_z.addr, align 8
  %5 = load float, ptr %4, align 4
  %m_floats4 = getelementptr inbounds %class.btVector3, ptr %this1, i32 0, i32 0
  %arrayidx5 = getelementptr inbounds [4 x float], ptr %m_floats4, i64 0, i64 2
  store float %5, ptr %arrayidx5, align 4
  %m_floats6 = getelementptr inbounds %class.btVector3, ptr %this1, i32 0, i32 0
  %arrayidx7 = getelementptr inbounds [4 x float], ptr %m_floats6, i64 0, i64 3
  store float 0.000000e+00, ptr %arrayidx7, align 4
  ret void
}

; Function Attrs: mustprogress uwtable
define linkonce_odr dso_local { <2 x float>, <2 x float> } @_ZmlRK9btVector3RKf(ptr noundef nonnull align 4 dereferenceable(16) %v, ptr noundef nonnull align 4 dereferenceable(4) %s) #6 comdat {
entry:
  %retval = alloca %class.btVector3, align 4
  %v.addr = alloca ptr, align 8
  %s.addr = alloca ptr, align 8
  %ref.tmp = alloca float, align 4
  %ref.tmp1 = alloca float, align 4
  %ref.tmp5 = alloca float, align 4
  store ptr %v, ptr %v.addr, align 8
  store ptr %s, ptr %s.addr, align 8
  %0 = load ptr, ptr %v.addr, align 8
  %m_floats = getelementptr inbounds %class.btVector3, ptr %0, i32 0, i32 0
  %arrayidx = getelementptr inbounds [4 x float], ptr %m_floats, i64 0, i64 0
  %1 = load float, ptr %arrayidx, align 4
  %2 = load ptr, ptr %s.addr, align 8
  %3 = load float, ptr %2, align 4
  %mul = fmul float %1, %3
  store float %mul, ptr %ref.tmp, align 4
  %4 = load ptr, ptr %v.addr, align 8
  %m_floats2 = getelementptr inbounds %class.btVector3, ptr %4, i32 0, i32 0
  %arrayidx3 = getelementptr inbounds [4 x float], ptr %m_floats2, i64 0, i64 1
  %5 = load float, ptr %arrayidx3, align 4
  %6 = load ptr, ptr %s.addr, align 8
  %7 = load float, ptr %6, align 4
  %mul4 = fmul float %5, %7
  store float %mul4, ptr %ref.tmp1, align 4
  %8 = load ptr, ptr %v.addr, align 8
  %m_floats6 = getelementptr inbounds %class.btVector3, ptr %8, i32 0, i32 0
  %arrayidx7 = getelementptr inbounds [4 x float], ptr %m_floats6, i64 0, i64 2
  %9 = load float, ptr %arrayidx7, align 4
  %10 = load ptr, ptr %s.addr, align 8
  %11 = load float, ptr %10, align 4
  %mul8 = fmul float %9, %11
  store float %mul8, ptr %ref.tmp5, align 4
  call void @_ZN9btVector3C2ERKfS1_S1_(ptr noundef nonnull align 4 dereferenceable(16) %retval, ptr noundef nonnull align 4 dereferenceable(4) %ref.tmp, ptr noundef nonnull align 4 dereferenceable(4) %ref.tmp1, ptr noundef nonnull align 4 dereferenceable(4) %ref.tmp5)
  %coerce.dive = getelementptr inbounds %class.btVector3, ptr %retval, i32 0, i32 0
  %12 = load { <2 x float>, <2 x float> }, ptr %coerce.dive, align 4
  ret { <2 x float>, <2 x float> } %12
}

; Function Attrs: mustprogress nounwind uwtable
define linkonce_odr dso_local noundef float @_ZNK9btVector33dotERKS_(ptr noundef nonnull align 4 dereferenceable(16) %this, ptr noundef nonnull align 4 dereferenceable(16) %v) #1 comdat align 2 {
entry:
  %this.addr = alloca ptr, align 8
  %v.addr = alloca ptr, align 8
  store ptr %this, ptr %this.addr, align 8
  store ptr %v, ptr %v.addr, align 8
  %this1 = load ptr, ptr %this.addr, align 8
  %m_floats = getelementptr inbounds %class.btVector3, ptr %this1, i32 0, i32 0
  %arrayidx = getelementptr inbounds [4 x float], ptr %m_floats, i64 0, i64 0
  %0 = load float, ptr %arrayidx, align 4
  %1 = load ptr, ptr %v.addr, align 8
  %m_floats2 = getelementptr inbounds %class.btVector3, ptr %1, i32 0, i32 0
  %arrayidx3 = getelementptr inbounds [4 x float], ptr %m_floats2, i64 0, i64 0
  %2 = load float, ptr %arrayidx3, align 4
  %m_floats4 = getelementptr inbounds %class.btVector3, ptr %this1, i32 0, i32 0
  %arrayidx5 = getelementptr inbounds [4 x float], ptr %m_floats4, i64 0, i64 1
  %3 = load float, ptr %arrayidx5, align 4
  %4 = load ptr, ptr %v.addr, align 8
  %m_floats6 = getelementptr inbounds %class.btVector3, ptr %4, i32 0, i32 0
  %arrayidx7 = getelementptr inbounds [4 x float], ptr %m_floats6, i64 0, i64 1
  %5 = load float, ptr %arrayidx7, align 4
  %mul8 = fmul float %3, %5
  %6 = call float @llvm.fmuladd.f32(float %0, float %2, float %mul8)
  %m_floats9 = getelementptr inbounds %class.btVector3, ptr %this1, i32 0, i32 0
  %arrayidx10 = getelementptr inbounds [4 x float], ptr %m_floats9, i64 0, i64 2
  %7 = load float, ptr %arrayidx10, align 4
  %8 = load ptr, ptr %v.addr, align 8
  %m_floats11 = getelementptr inbounds %class.btVector3, ptr %8, i32 0, i32 0
  %arrayidx12 = getelementptr inbounds [4 x float], ptr %m_floats11, i64 0, i64 2
  %9 = load float, ptr %arrayidx12, align 4
  %10 = call float @llvm.fmuladd.f32(float %7, float %9, float %6)
  ret float %10
}

; Function Attrs: mustprogress nounwind uwtable
define linkonce_odr dso_local noundef nonnull align 4 dereferenceable(64) ptr @_ZN17btCollisionObject30getInterpolationWorldTransformEv(ptr noundef nonnull align 8 dereferenceable(372) %this) #1 comdat align 2 {
entry:
  %this.addr = alloca ptr, align 8
  store ptr %this, ptr %this.addr, align 8
  %this1 = load ptr, ptr %this.addr, align 8
  %m_interpolationWorldTransform = getelementptr inbounds %class.btCollisionObject, ptr %this1, i32 0, i32 2
  ret ptr %m_interpolationWorldTransform
}

; Function Attrs: mustprogress uwtable
define linkonce_odr dso_local { <2 x float>, <2 x float> } @_ZmlRKfRK9btVector3(ptr noundef nonnull align 4 dereferenceable(4) %s, ptr noundef nonnull align 4 dereferenceable(16) %v) #5 comdat {
entry:
  %retval = alloca %class.btVector3, align 4
  %s.addr = alloca ptr, align 8
  %v.addr = alloca ptr, align 8
  store ptr %s, ptr %s.addr, align 8
  store ptr %v, ptr %v.addr, align 8
  %0 = load ptr, ptr %v.addr, align 8
  %1 = load ptr, ptr %s.addr, align 8
  %call = call { <2 x float>, <2 x float> } @_ZmlRK9btVector3RKf(ptr noundef nonnull align 4 dereferenceable(16) %0, ptr noundef nonnull align 4 dereferenceable(4) %1)
  %coerce.dive = getelementptr inbounds %class.btVector3, ptr %retval, i32 0, i32 0
  %2 = getelementptr inbounds { <2 x float>, <2 x float> }, ptr %coerce.dive, i32 0, i32 0
  %3 = extractvalue { <2 x float>, <2 x float> } %call, 0
  store <2 x float> %3, ptr %2, align 4
  %4 = getelementptr inbounds { <2 x float>, <2 x float> }, ptr %coerce.dive, i32 0, i32 1
  %5 = extractvalue { <2 x float>, <2 x float> } %call, 1
  store <2 x float> %5, ptr %4, align 4
  %coerce.dive1 = getelementptr inbounds %class.btVector3, ptr %retval, i32 0, i32 0
  %6 = load { <2 x float>, <2 x float> }, ptr %coerce.dive1, align 4
  ret { <2 x float>, <2 x float> } %6
}

; Function Attrs: mustprogress nounwind uwtable
define linkonce_odr dso_local noundef float @_Z5btDotRK9btVector3S1_(ptr noundef nonnull align 4 dereferenceable(16) %v1, ptr noundef nonnull align 4 dereferenceable(16) %v2) #1 comdat {
entry:
  %v1.addr = alloca ptr, align 8
  %v2.addr = alloca ptr, align 8
  store ptr %v1, ptr %v1.addr, align 8
  store ptr %v2, ptr %v2.addr, align 8
  %0 = load ptr, ptr %v1.addr, align 8
  %1 = load ptr, ptr %v2.addr, align 8
  %call = call noundef float @_ZNK9btVector33dotERKS_(ptr noundef nonnull align 4 dereferenceable(16) %0, ptr noundef nonnull align 4 dereferenceable(16) %1)
  ret float %call
}

; Function Attrs: mustprogress uwtable
define dso_local { <2 x float>, <2 x float> } @_ZNK35btReducedDeformableStaticConstraint10getDeltaVaEv(ptr noundef nonnull align 8 dereferenceable(172) %this) #5 align 2 {
entry:
  %retval = alloca %class.btVector3, align 4
  %this.addr = alloca ptr, align 8
  store ptr %this, ptr %this.addr, align 8
  %this1 = load ptr, ptr %this.addr, align 8
  %m_rsb = getelementptr inbounds %class.btReducedDeformableStaticConstraint, ptr %this1, i32 0, i32 1
  %0 = load ptr, ptr %m_rsb, align 8
  %m_rsb2 = getelementptr inbounds %class.btReducedDeformableStaticConstraint, ptr %this1, i32 0, i32 1
  %1 = load ptr, ptr %m_rsb2, align 8
  %call = call noundef nonnull align 4 dereferenceable(64) ptr @_ZN17btCollisionObject30getInterpolationWorldTransformEv(ptr noundef nonnull align 8 dereferenceable(372) %1)
  %m_node = getelementptr inbounds %class.btDeformableStaticConstraint, ptr %this1, i32 0, i32 1
  %2 = load ptr, ptr %m_node, align 8
  %index = getelementptr inbounds %"struct.btSoftBody::Node", ptr %2, i32 0, i32 13
  %3 = load i32, ptr %index, align 8
  %call3 = call { <2 x float>, <2 x float> } @_ZNK23btReducedDeformableBody32internalComputeNodeDeltaVelocityERK11btTransformi(ptr noundef nonnull align 8 dereferenceable(3176) %0, ptr noundef nonnull align 4 dereferenceable(64) %call, i32 noundef %3)
  %coerce.dive = getelementptr inbounds %class.btVector3, ptr %retval, i32 0, i32 0
  %4 = getelementptr inbounds { <2 x float>, <2 x float> }, ptr %coerce.dive, i32 0, i32 0
  %5 = extractvalue { <2 x float>, <2 x float> } %call3, 0
  store <2 x float> %5, ptr %4, align 4
  %6 = getelementptr inbounds { <2 x float>, <2 x float> }, ptr %coerce.dive, i32 0, i32 1
  %7 = extractvalue { <2 x float>, <2 x float> } %call3, 1
  store <2 x float> %7, ptr %6, align 4
  %coerce.dive4 = getelementptr inbounds %class.btVector3, ptr %retval, i32 0, i32 0
  %8 = load { <2 x float>, <2 x float> }, ptr %coerce.dive4, align 4
  ret { <2 x float>, <2 x float> } %8
}

; Function Attrs: mustprogress uwtable
define dso_local noundef float @_ZN35btReducedDeformableStaticConstraint15solveConstraintERK19btContactSolverInfo(ptr noundef nonnull align 8 dereferenceable(172) %this, ptr noundef nonnull align 4 dereferenceable(128) %infoGlobal) unnamed_addr #5 align 2 {
entry:
  %this.addr = alloca ptr, align 8
  %infoGlobal.addr = alloca ptr, align 8
  %deltaVa = alloca %class.btVector3, align 4
  %deltaV_rel = alloca float, align 4
  %deltaImpulse = alloca float, align 4
  %impulse = alloca %class.btVector3, align 4
  %residualSquare = alloca float, align 4
  store ptr %this, ptr %this.addr, align 8
  store ptr %infoGlobal, ptr %infoGlobal.addr, align 8
  %this1 = load ptr, ptr %this.addr, align 8
  %call = call { <2 x float>, <2 x float> } @_ZNK35btReducedDeformableStaticConstraint10getDeltaVaEv(ptr noundef nonnull align 8 dereferenceable(172) %this1)
  %coerce.dive = getelementptr inbounds %class.btVector3, ptr %deltaVa, i32 0, i32 0
  %0 = getelementptr inbounds { <2 x float>, <2 x float> }, ptr %coerce.dive, i32 0, i32 0
  %1 = extractvalue { <2 x float>, <2 x float> } %call, 0
  store <2 x float> %1, ptr %0, align 4
  %2 = getelementptr inbounds { <2 x float>, <2 x float> }, ptr %coerce.dive, i32 0, i32 1
  %3 = extractvalue { <2 x float>, <2 x float> } %call, 1
  store <2 x float> %3, ptr %2, align 4
  %m_impulseDirection = getelementptr inbounds %class.btReducedDeformableStaticConstraint, ptr %this1, i32 0, i32 5
  %call2 = call noundef float @_Z5btDotRK9btVector3S1_(ptr noundef nonnull align 4 dereferenceable(16) %deltaVa, ptr noundef nonnull align 4 dereferenceable(16) %m_impulseDirection)
  store float %call2, ptr %deltaV_rel, align 4
  %m_rhs = getelementptr inbounds %class.btReducedDeformableStaticConstraint, ptr %this1, i32 0, i32 8
  %4 = load float, ptr %m_rhs, align 8
  %5 = load float, ptr %deltaV_rel, align 4
  %m_impulseFactor = getelementptr inbounds %class.btReducedDeformableStaticConstraint, ptr %this1, i32 0, i32 7
  %6 = load float, ptr %m_impulseFactor, align 4
  %div = fdiv float %5, %6
  %sub = fsub float %4, %div
  store float %sub, ptr %deltaImpulse, align 4
  %m_appliedImpulse = getelementptr inbounds %class.btReducedDeformableStaticConstraint, ptr %this1, i32 0, i32 9
  %7 = load float, ptr %m_appliedImpulse, align 4
  %8 = load float, ptr %deltaImpulse, align 4
  %add = fadd float %7, %8
  %m_appliedImpulse3 = getelementptr inbounds %class.btReducedDeformableStaticConstraint, ptr %this1, i32 0, i32 9
  store float %add, ptr %m_appliedImpulse3, align 4
  %m_impulseDirection4 = getelementptr inbounds %class.btReducedDeformableStaticConstraint, ptr %this1, i32 0, i32 5
  %call5 = call { <2 x float>, <2 x float> } @_ZmlRKfRK9btVector3(ptr noundef nonnull align 4 dereferenceable(4) %deltaImpulse, ptr noundef nonnull align 4 dereferenceable(16) %m_impulseDirection4)
  %coerce.dive6 = getelementptr inbounds %class.btVector3, ptr %impulse, i32 0, i32 0
  %9 = getelementptr inbounds { <2 x float>, <2 x float> }, ptr %coerce.dive6, i32 0, i32 0
  %10 = extractvalue { <2 x float>, <2 x float> } %call5, 0
  store <2 x float> %10, ptr %9, align 4
  %11 = getelementptr inbounds { <2 x float>, <2 x float> }, ptr %coerce.dive6, i32 0, i32 1
  %12 = extractvalue { <2 x float>, <2 x float> } %call5, 1
  store <2 x float> %12, ptr %11, align 4
  %vtable = load ptr, ptr %this1, align 8
  %vfn = getelementptr inbounds ptr, ptr %vtable, i64 6
  %13 = load ptr, ptr %vfn, align 8
  call void %13(ptr noundef nonnull align 8 dereferenceable(172) %this1, ptr noundef nonnull align 4 dereferenceable(16) %impulse)
  %m_impulseFactor7 = getelementptr inbounds %class.btReducedDeformableStaticConstraint, ptr %this1, i32 0, i32 7
  %14 = load float, ptr %m_impulseFactor7, align 4
  %15 = load float, ptr %deltaImpulse, align 4
  %mul = fmul float %14, %15
  store float %mul, ptr %residualSquare, align 4
  %16 = load float, ptr %residualSquare, align 4
  %17 = load float, ptr %residualSquare, align 4
  %mul8 = fmul float %17, %16
  store float %mul8, ptr %residualSquare, align 4
  %18 = load float, ptr %residualSquare, align 4
  ret float %18
}