; Function Attrs: mustprogress uwtable
define dso_local noundef float @_ZN35btReducedDeformableStaticConstraint15solveConstraintERK19btContactSolverInfo(ptr noundef nonnull align 8 dereferenceable(172) %this, ptr nocapture nonnull readnone align 4 %infoGlobal) unnamed_addr #3 align 2 {
entry:
  %impulse = alloca %class.btVector3, align 8
  %m_rsb.i = getelementptr inbounds i8, ptr %this, i64 48
  %0 = load ptr, ptr %m_rsb.i, align 8
  %m_interpolationWorldTransform.i.i = getelementptr inbounds i8, ptr %0, i64 72
  %m_node.i = getelementptr inbounds i8, ptr %this, i64 40
  %1 = load ptr, ptr %m_node.i, align 8
  %index.i = getelementptr inbounds i8, ptr %1, i64 136
  %2 = load i32, ptr %index.i, align 8
  %call3.i = tail call { <2 x float>, <2 x float> } @_ZNK23btReducedDeformableBody32internalComputeNodeDeltaVelocityERK11btTransformi(ptr noundef nonnull align 8 dereferenceable(3176) %0, ptr noundef nonnull align 4 dereferenceable(64) %m_interpolationWorldTransform.i.i, i32 noundef %2)
  %3 = extractvalue { <2 x float>, <2 x float> } %call3.i, 0
  %4 = extractvalue { <2 x float>, <2 x float> } %call3.i, 1
  %m_impulseDirection = getelementptr inbounds i8, ptr %this, i64 92
  %deltaVa.sroa.0.0.vec.extract = extractelement <2 x float> %3, i64 0
  %deltaVa.sroa.3.8.vec.extract = extractelement <2 x float> %4, i64 0
  %arrayidx12.i.i = getelementptr inbounds i8, ptr %this, i64 100
  %5 = load float, ptr %arrayidx12.i.i, align 4
  %m_rhs = getelementptr inbounds i8, ptr %this, i64 160
  %6 = load float, ptr %m_rhs, align 8
  %m_impulseFactor = getelementptr inbounds i8, ptr %this, i64 156
  %7 = load float, ptr %m_impulseFactor, align 4
  %m_appliedImpulse = getelementptr inbounds i8, ptr %this, i64 164
  %8 = load float, ptr %m_appliedImpulse, align 4
  %9 = load <2 x float>, ptr %m_impulseDirection, align 4
  %10 = fmul <2 x float> %3, %9
  %mul8.i.i = extractelement <2 x float> %10, i64 1
  %11 = extractelement <2 x float> %9, i64 0
  %12 = tail call float @llvm.fmuladd.f32(float %deltaVa.sroa.0.0.vec.extract, float %11, float %mul8.i.i)
  %13 = tail call noundef float @llvm.fmuladd.f32(float %deltaVa.sroa.3.8.vec.extract, float %5, float %12)
  %div = fdiv float %13, %7
  %sub = fsub float %6, %div
  %add = fadd float %8, %sub
  store float %add, ptr %m_appliedImpulse, align 4
  %14 = insertelement <2 x float> poison, float %sub, i64 0
  %15 = shufflevector <2 x float> %14, <2 x float> poison, <2 x i32> zeroinitializer
  %16 = fmul <2 x float> %9, %15
  %mul8.i.i4 = fmul float %5, %sub
  %retval.sroa.3.12.vec.insert.i.i = insertelement <2 x float> <float poison, float 0.000000e+00>, float %mul8.i.i4, i64 0
  store <2 x float> %16, ptr %impulse, align 8
  %17 = getelementptr inbounds i8, ptr %impulse, i64 8
  store <2 x float> %retval.sroa.3.12.vec.insert.i.i, ptr %17, align 8
  %vtable = load ptr, ptr %this, align 8
  %vfn = getelementptr inbounds i8, ptr %vtable, i64 48
  %18 = load ptr, ptr %vfn, align 8
  call void %18(ptr noundef nonnull align 8 dereferenceable(172) %this, ptr noundef nonnull align 4 dereferenceable(16) %impulse)
  %19 = load float, ptr %m_impulseFactor, align 4
  %mul = fmul float %sub, %19
  %mul8 = fmul float %mul, %mul
  ret float %mul8
}